target datalayout = "e-m:e-p270:32:32-p271:32:32-p272:64:64-i64:64-i128:128-f80:128-n8:16:32:64-S128"
target triple = "x86_64-unknown-linux-gnu"

%"struct.icu_75::NGramsPlusLang" = type { [64 x i32], ptr }
%"class.icu_75::InputText" = type <{ ptr, i32, [4 x i8], ptr, i8, [7 x i8], ptr, ptr, i32, [4 x i8] }>

@.str = private unnamed_addr constant [13 x i8] c"windows-1252\00", align 1
@.str.1 = private unnamed_addr constant [11 x i8] c"ISO-8859-1\00", align 1

; Function Attrs: mustprogress uwtable
define noundef signext i8 @_ZNK6icu_7519CharsetRecog_8859_15matchEPNS_9InputTextEPNS_12CharsetMatchE(ptr noundef nonnull align 8 dereferenceable(8) %this, ptr noundef %textIn, ptr noundef %results) unnamed_addr #2 align 2 {
entry:
  %this.addr = alloca ptr, align 8
  %textIn.addr = alloca ptr, align 8
  %results.addr = alloca ptr, align 8
  %name = alloca ptr, align 8
  %i = alloca i32, align 4
  %bestConfidenceSoFar = alloca i32, align 4
  %ngrams = alloca ptr, align 8
  %lang = alloca ptr, align 8
  %confidence = alloca i32, align 4
  store ptr %this, ptr %this.addr, align 8
  store ptr %textIn, ptr %textIn.addr, align 8
  store ptr %results, ptr %results.addr, align 8
  %this1 = load ptr, ptr %this.addr, align 8
  %0 = load ptr, ptr %textIn.addr, align 8
  %fC1Bytes = getelementptr inbounds %"class.icu_75::InputText", ptr %0, i32 0, i32 4
  %1 = load i8, ptr %fC1Bytes, align 8
  %tobool = icmp ne i8 %1, 0
  %cond = select i1 %tobool, ptr @.str, ptr @.str.1
  store ptr %cond, ptr %name, align 8
  store i32 -1, ptr %bestConfidenceSoFar, align 4
  store i32 0, ptr %i, align 4
  br label %for.cond

for.cond:                                         ; preds = %for.inc, %entry
  %2 = load i32, ptr %i, align 4
  %cmp = icmp ult i32 %2, 10
  br i1 %cmp, label %for.body, label %for.end

for.body:                                         ; preds = %for.cond
  %3 = load i32, ptr %i, align 4
  %idxprom = zext i32 %3 to i64
  %arrayidx = getelementptr inbounds [10 x %"struct.icu_75::NGramsPlusLang"], ptr @_ZN6icu_75L13ngrams_8859_1E, i64 0, i64 %idxprom
  %ngrams2 = getelementptr inbounds %"struct.icu_75::NGramsPlusLang", ptr %arrayidx, i32 0, i32 0
  %arraydecay = getelementptr inbounds [64 x i32], ptr %ngrams2, i64 0, i64 0
  store ptr %arraydecay, ptr %ngrams, align 8
  %4 = load i32, ptr %i, align 4
  %idxprom3 = zext i32 %4 to i64
  %arrayidx4 = getelementptr inbounds [10 x %"struct.icu_75::NGramsPlusLang"], ptr @_ZN6icu_75L13ngrams_8859_1E, i64 0, i64 %idxprom3
  %lang5 = getelementptr inbounds %"struct.icu_75::NGramsPlusLang", ptr %arrayidx4, i32 0, i32 1
  %5 = load ptr, ptr %lang5, align 8
  store ptr %5, ptr %lang, align 8
  %6 = load ptr, ptr %textIn.addr, align 8
  %7 = load ptr, ptr %ngrams, align 8
  %vtable = load ptr, ptr %this1, align 8
  %vfn = getelementptr inbounds ptr, ptr %vtable, i64 5
  %8 = load ptr, ptr %vfn, align 8
  %call = call noundef i32 %8(ptr noundef nonnull align 8 dereferenceable(8) %this1, ptr noundef %6, ptr noundef %7, ptr noundef @_ZN6icu_75L14charMap_8859_1E)
  store i32 %call, ptr %confidence, align 4
  %9 = load i32, ptr %confidence, align 4
  %10 = load i32, ptr %bestConfidenceSoFar, align 4
  %cmp6 = icmp sgt i32 %9, %10
  br i1 %cmp6, label %if.then, label %if.end

if.then:                                          ; preds = %for.body
  %11 = load ptr, ptr %results.addr, align 8
  %12 = load ptr, ptr %textIn.addr, align 8
  %13 = load i32, ptr %confidence, align 4
  %14 = load ptr, ptr %name, align 8
  %15 = load ptr, ptr %lang, align 8
  call void @_ZN6icu_7512CharsetMatch3setEPNS_9InputTextEPKNS_17CharsetRecognizerEiPKcS7_(ptr noundef nonnull align 8 dereferenceable(32) %11, ptr noundef %12, ptr noundef %this1, i32 noundef %13, ptr noundef %14, ptr noundef %15)
  %16 = load i32, ptr %confidence, align 4
  store i32 %16, ptr %bestConfidenceSoFar, align 4
  br label %if.end

if.end:                                           ; preds = %if.then, %for.body
  br label %for.inc

for.inc:                                          ; preds = %if.end
  %17 = load i32, ptr %i, align 4
  %inc = add i32 %17, 1
  store i32 %inc, ptr %i, align 4
  br label %for.cond, !llvm.loop !7

for.end:                                          ; preds = %for.cond
  %18 = load i32, ptr %bestConfidenceSoFar, align 4
  %cmp7 = icmp sgt i32 %18, 0
  %conv = zext i1 %cmp7 to i8
  ret i8 %conv
}